; ModuleID = '61/1480.c'
source_filename = "61/1480.c"
target datalayout = "e-m:e-p270:32:32-p271:32:32-p272:64:64-i64:64-f80:128-n8:16:32:64-S128"
target triple = "x86_64-pc-linux-gnu"

@.str = private unnamed_addr constant [3 x i8] c"%d\00", align 1
@.str.1 = private unnamed_addr constant [4 x i8] c"%d\0A\00", align 1

; Function Attrs: noinline nounwind uwtable
define dso_local i32 @main() #0 {
  %1 = alloca i32, align 4
  %2 = alloca i32, align 4
  %3 = alloca i32, align 4
  %4 = alloca i32, align 4
  %5 = alloca i32, align 4
  %6 = alloca [100 x i32], align 16
  %7 = alloca i32, align 4
  %8 = alloca i32, align 4
  store i32 0, i32* %1, align 4
  store i32 1, i32* %2, align 4
  store i32 1, i32* %3, align 4
  %9 = call i32 (i8*, ...) @__isoc99_scanf(i8* getelementptr inbounds ([3 x i8], [3 x i8]* @.str, i64 0, i64 0), i32* %4)
  store i32 0, i32* %7, align 4
  br label %10

10:                                               ; preds = %21, %0
  %11 = load i32, i32* %7, align 4
  %12 = load i32, i32* %4, align 4
  %13 = icmp slt i32 %11, %12
  br i1 %13, label %14, label %24

14:                                               ; preds = %10
  %15 = call i32 (i8*, ...) @__isoc99_scanf(i8* getelementptr inbounds ([3 x i8], [3 x i8]* @.str, i64 0, i64 0), i32* %5)
  %16 = load i32, i32* %5, align 4
  %17 = call i32 @dijigeshu(i32 %16)
  %18 = load i32, i32* %7, align 4
  %19 = sext i32 %18 to i64
  %20 = getelementptr inbounds [100 x i32], [100 x i32]* %6, i64 0, i64 %19
  store i32 %17, i32* %20, align 4
  br label %21

21:                                               ; preds = %14
  %22 = load i32, i32* %7, align 4
  %23 = add nsw i32 %22, 1
  store i32 %23, i32* %7, align 4
  br label %10

24:                                               ; preds = %10
  store i32 0, i32* %8, align 4
  br label %25

25:                                               ; preds = %35, %24
  %26 = load i32, i32* %8, align 4
  %27 = load i32, i32* %4, align 4
  %28 = icmp slt i32 %26, %27
  br i1 %28, label %29, label %38

29:                                               ; preds = %25
  %30 = load i32, i32* %8, align 4
  %31 = sext i32 %30 to i64
  %32 = getelementptr inbounds [100 x i32], [100 x i32]* %6, i64 0, i64 %31
  %33 = load i32, i32* %32, align 4
  %34 = call i32 (i8*, ...) @printf(i8* getelementptr inbounds ([4 x i8], [4 x i8]* @.str.1, i64 0, i64 0), i32 %33)
  br label %35

35:                                               ; preds = %29
  %36 = load i32, i32* %8, align 4
  %37 = add nsw i32 %36, 1
  store i32 %37, i32* %8, align 4
  br label %25

38:                                               ; preds = %25
  ret i32 0
}

declare dso_local i32 @__isoc99_scanf(i8*, ...) #1

; Function Attrs: noinline nounwind uwtable
define dso_local i32 @dijigeshu(i32 %0) #0 {
  %2 = alloca i32, align 4
  %3 = alloca i32, align 4
  %4 = alloca i32, align 4
  %5 = alloca i32, align 4
  %6 = alloca i32, align 4
  %7 = alloca i32, align 4
  store i32 %0, i32* %3, align 4
  store i32 1, i32* %4, align 4
  store i32 1, i32* %5, align 4
  %8 = load i32, i32* %3, align 4
  %9 = icmp eq i32 %8, 1
  br i1 %9, label %13, label %10

10:                                               ; preds = %1
  %11 = load i32, i32* %3, align 4
  %12 = icmp eq i32 %11, 2
  br i1 %12, label %13, label %14

13:                                               ; preds = %10, %1
  store i32 1, i32* %2, align 4
  br label %30

14:                                               ; preds = %10
  store i32 3, i32* %7, align 4
  br label %15

15:                                               ; preds = %25, %14
  %16 = load i32, i32* %7, align 4
  %17 = load i32, i32* %3, align 4
  %18 = icmp sle i32 %16, %17
  br i1 %18, label %19, label %28

19:                                               ; preds = %15
  %20 = load i32, i32* %4, align 4
  %21 = load i32, i32* %5, align 4
  %22 = add nsw i32 %20, %21
  store i32 %22, i32* %6, align 4
  %23 = load i32, i32* %5, align 4
  store i32 %23, i32* %4, align 4
  %24 = load i32, i32* %6, align 4
  store i32 %24, i32* %5, align 4
  br label %25

25:                                               ; preds = %19
  %26 = load i32, i32* %7, align 4
  %27 = add nsw i32 %26, 1
  store i32 %27, i32* %7, align 4
  br label %15

28:                                               ; preds = %15
  %29 = load i32, i32* %6, align 4
  store i32 %29, i32* %2, align 4
  br label %30

30:                                               ; preds = %28, %13
  %31 = load i32, i32* %2, align 4
  ret i32 %31
}

declare dso_local i32 @printf(i8*, ...) #1


!llvm.module.flags = !{!0}
!llvm.ident = !{!1}

!0 = !{i32 1, !"wchar_size", i32 4}
!1 = !{!"clang version 10.0.0-4ubuntu1 "}
